target datalayout = "e-m:e-p270:32:32-p271:32:32-p272:64:64-i64:64-i128:128-f80:128-n8:16:32:64-S128"
target triple = "x86_64-pc-linux-gnu"

%struct._object = type { %union.anon, ptr }
%union.anon = type { i64 }
%struct.module_state = type { ptr, ptr, ptr, ptr, ptr }
%struct.anon = type { i32, i32 }
%struct._PyXIData_lookup_context_t = type { ptr, ptr, ptr }

; Function Attrs: alwaysinline nounwind uwtable
define internal i32 @_Py_IsImmortal(ptr noundef %0) #6 {
  %2 = alloca ptr, align 8
  store ptr %0, ptr %2, align 8, !tbaa !3
  %3 = load ptr, ptr %2, align 8, !tbaa !3
  %4 = getelementptr inbounds nuw %struct._object, ptr %3, i32 0, i32 0
  %5 = getelementptr inbounds nuw %struct.anon, ptr %4, i32 0, i32 0
  %6 = load i32, ptr %5, align 8, !tbaa !73
  %7 = icmp slt i32 %6, 0
  %8 = zext i1 %7 to i32
  ret i32 %8
}

; Function Attrs: alwaysinline nounwind uwtable
define internal void @Py_DECREF(ptr noundef %0) #6 {
  %2 = alloca ptr, align 8
  store ptr %0, ptr %2, align 8, !tbaa !3
  %3 = load ptr, ptr %2, align 8, !tbaa !3
  %4 = call i32 @_Py_IsImmortal(ptr noundef %3)
  %5 = icmp ne i32 %4, 0
  br i1 %5, label %6, label %7

6:                                                ; preds = %1
  br label %16

7:                                                ; preds = %1
  %8 = load ptr, ptr %2, align 8, !tbaa !3
  %9 = getelementptr inbounds nuw %struct._object, ptr %8, i32 0, i32 0
  %10 = getelementptr inbounds nuw %struct.anon, ptr %9, i32 0, i32 0
  %11 = load i32, ptr %10, align 8, !tbaa !73
  %12 = add i32 %11, -1
  store i32 %12, ptr %10, align 8, !tbaa !73
  %13 = icmp eq i32 %12, 0
  br i1 %13, label %14, label %16

14:                                               ; preds = %7
  %15 = load ptr, ptr %2, align 8, !tbaa !3
  call void @_Py_Dealloc(ptr noundef %15)
  br label %16

16:                                               ; preds = %6, %14, %7
  ret void
}

; Function Attrs: nounwind uwtable
define internal i32 @clear_xid_class(ptr noundef %0) #0 {
  %2 = alloca i32, align 4
  %3 = alloca ptr, align 8
  %4 = alloca ptr, align 8
  %5 = alloca %struct._PyXIData_lookup_context_t, align 8
  %6 = alloca i32, align 4
  store ptr %0, ptr %3, align 8, !tbaa !113
  call void @llvm.lifetime.start.p0(i64 8, ptr %4) #8
  %7 = call ptr @PyInterpreterState_Get()
  store ptr %7, ptr %4, align 8, !tbaa !98
  call void @llvm.lifetime.start.p0(i64 24, ptr %5) #8
  %8 = load ptr, ptr %4, align 8, !tbaa !98
  %9 = call i32 @_PyXIData_GetLookupContext(ptr noundef %8, ptr noundef %5)
  %10 = icmp slt i32 %9, 0
  br i1 %10, label %11, label %12

11:                                               ; preds = %1
  store i32 -1, ptr %2, align 4
  store i32 1, ptr %6, align 4
  br label %15

12:                                               ; preds = %1
  %13 = load ptr, ptr %3, align 8, !tbaa !113
  %14 = call i32 @_PyXIData_UnregisterClass(ptr noundef %5, ptr noundef %13)
  store i32 %14, ptr %2, align 4
  store i32 1, ptr %6, align 4
  br label %15

15:                                               ; preds = %12, %11
  call void @llvm.lifetime.end.p0(i64 24, ptr %5) #8
  call void @llvm.lifetime.end.p0(i64 8, ptr %4) #8
  %16 = load i32, ptr %2, align 4
  ret i32 %16
}

; Function Attrs: nounwind uwtable
define internal i32 @clear_module_state(ptr noundef %0) #0 {
  %2 = alloca ptr, align 8
  %3 = alloca ptr, align 8
  %4 = alloca ptr, align 8
  %5 = alloca ptr, align 8
  %6 = alloca ptr, align 8
  %7 = alloca ptr, align 8
  %8 = alloca ptr, align 8
  %9 = alloca ptr, align 8
  %10 = alloca ptr, align 8
  %11 = alloca ptr, align 8
  %12 = alloca ptr, align 8
  store ptr %0, ptr %2, align 8, !tbaa !8
  %13 = load ptr, ptr %2, align 8, !tbaa !8
  %14 = getelementptr inbounds nuw %struct.module_state, ptr %13, i32 0, i32 0
  %15 = load ptr, ptr %14, align 8, !tbaa !115
  %16 = icmp ne ptr %15, null
  br i1 %16, label %17, label %22

17:                                               ; preds = %1
  %18 = load ptr, ptr %2, align 8, !tbaa !8
  %19 = getelementptr inbounds nuw %struct.module_state, ptr %18, i32 0, i32 0
  %20 = load ptr, ptr %19, align 8, !tbaa !115
  %21 = call i32 @clear_xid_class(ptr noundef %20)
  br label %22

22:                                               ; preds = %17, %1
  br label %23

23:                                               ; preds = %22
  call void @llvm.lifetime.start.p0(i64 8, ptr %3) #8
  %24 = load ptr, ptr %2, align 8, !tbaa !8
  %25 = getelementptr inbounds nuw %struct.module_state, ptr %24, i32 0, i32 0
  store ptr %25, ptr %3, align 8, !tbaa !116
  call void @llvm.lifetime.start.p0(i64 8, ptr %4) #8
  %26 = load ptr, ptr %3, align 8, !tbaa !116
  %27 = load ptr, ptr %26, align 8, !tbaa !113
  store ptr %27, ptr %4, align 8, !tbaa !113
  %28 = load ptr, ptr %4, align 8, !tbaa !113
  %29 = icmp ne ptr %28, null
  br i1 %29, label %30, label %33

30:                                               ; preds = %23
  %31 = load ptr, ptr %3, align 8, !tbaa !116
  store ptr null, ptr %31, align 8, !tbaa !113
  %32 = load ptr, ptr %4, align 8, !tbaa !113
  call void @Py_DECREF(ptr noundef %32)
  br label %33

33:                                               ; preds = %30, %23
  call void @llvm.lifetime.end.p0(i64 8, ptr %4) #8
  call void @llvm.lifetime.end.p0(i64 8, ptr %3) #8
  br label %34

34:                                               ; preds = %33
  br label %35

35:                                               ; preds = %34
  call void @llvm.lifetime.start.p0(i64 8, ptr %5) #8
  %36 = load ptr, ptr %2, align 8, !tbaa !8
  %37 = getelementptr inbounds nuw %struct.module_state, ptr %36, i32 0, i32 1
  store ptr %37, ptr %5, align 8, !tbaa !22
  call void @llvm.lifetime.start.p0(i64 8, ptr %6) #8
  %38 = load ptr, ptr %5, align 8, !tbaa !22
  %39 = load ptr, ptr %38, align 8, !tbaa !3
  store ptr %39, ptr %6, align 8, !tbaa !3
  %40 = load ptr, ptr %6, align 8, !tbaa !3
  %41 = icmp ne ptr %40, null
  br i1 %41, label %42, label %45

42:                                               ; preds = %35
  %43 = load ptr, ptr %5, align 8, !tbaa !22
  store ptr null, ptr %43, align 8, !tbaa !3
  %44 = load ptr, ptr %6, align 8, !tbaa !3
  call void @Py_DECREF(ptr noundef %44)
  br label %45

45:                                               ; preds = %42, %35
  call void @llvm.lifetime.end.p0(i64 8, ptr %6) #8
  call void @llvm.lifetime.end.p0(i64 8, ptr %5) #8
  br label %46

46:                                               ; preds = %45
  br label %47

47:                                               ; preds = %46
  call void @llvm.lifetime.start.p0(i64 8, ptr %7) #8
  %48 = load ptr, ptr %2, align 8, !tbaa !8
  %49 = getelementptr inbounds nuw %struct.module_state, ptr %48, i32 0, i32 2
  store ptr %49, ptr %7, align 8, !tbaa !22
  call void @llvm.lifetime.start.p0(i64 8, ptr %8) #8
  %50 = load ptr, ptr %7, align 8, !tbaa !22
  %51 = load ptr, ptr %50, align 8, !tbaa !3
  store ptr %51, ptr %8, align 8, !tbaa !3
  %52 = load ptr, ptr %8, align 8, !tbaa !3
  %53 = icmp ne ptr %52, null
  br i1 %53, label %54, label %57

54:                                               ; preds = %47
  %55 = load ptr, ptr %7, align 8, !tbaa !22
  store ptr null, ptr %55, align 8, !tbaa !3
  %56 = load ptr, ptr %8, align 8, !tbaa !3
  call void @Py_DECREF(ptr noundef %56)
  br label %57

57:                                               ; preds = %54, %47
  call void @llvm.lifetime.end.p0(i64 8, ptr %8) #8
  call void @llvm.lifetime.end.p0(i64 8, ptr %7) #8
  br label %58

58:                                               ; preds = %57
  br label %59

59:                                               ; preds = %58
  call void @llvm.lifetime.start.p0(i64 8, ptr %9) #8
  %60 = load ptr, ptr %2, align 8, !tbaa !8
  %61 = getelementptr inbounds nuw %struct.module_state, ptr %60, i32 0, i32 3
  store ptr %61, ptr %9, align 8, !tbaa !22
  call void @llvm.lifetime.start.p0(i64 8, ptr %10) #8
  %62 = load ptr, ptr %9, align 8, !tbaa !22
  %63 = load ptr, ptr %62, align 8, !tbaa !3
  store ptr %63, ptr %10, align 8, !tbaa !3
  %64 = load ptr, ptr %10, align 8, !tbaa !3
  %65 = icmp ne ptr %64, null
  br i1 %65, label %66, label %69

66:                                               ; preds = %59
  %67 = load ptr, ptr %9, align 8, !tbaa !22
  store ptr null, ptr %67, align 8, !tbaa !3
  %68 = load ptr, ptr %10, align 8, !tbaa !3
  call void @Py_DECREF(ptr noundef %68)
  br label %69

69:                                               ; preds = %66, %59
  call void @llvm.lifetime.end.p0(i64 8, ptr %10) #8
  call void @llvm.lifetime.end.p0(i64 8, ptr %9) #8
  br label %70

70:                                               ; preds = %69
  br label %71

71:                                               ; preds = %70
  call void @llvm.lifetime.start.p0(i64 8, ptr %11) #8
  %72 = load ptr, ptr %2, align 8, !tbaa !8
  %73 = getelementptr inbounds nuw %struct.module_state, ptr %72, i32 0, i32 4
  store ptr %73, ptr %11, align 8, !tbaa !22
  call void @llvm.lifetime.start.p0(i64 8, ptr %12) #8
  %74 = load ptr, ptr %11, align 8, !tbaa !22
  %75 = load ptr, ptr %74, align 8, !tbaa !3
  store ptr %75, ptr %12, align 8, !tbaa !3
  %76 = load ptr, ptr %12, align 8, !tbaa !3
  %77 = icmp ne ptr %76, null
  br i1 %77, label %78, label %81

78:                                               ; preds = %71
  %79 = load ptr, ptr %11, align 8, !tbaa !22
  store ptr null, ptr %79, align 8, !tbaa !3
  %80 = load ptr, ptr %12, align 8, !tbaa !3
  call void @Py_DECREF(ptr noundef %80)
  br label %81

81:                                               ; preds = %78, %71
  call void @llvm.lifetime.end.p0(i64 8, ptr %12) #8
  call void @llvm.lifetime.end.p0(i64 8, ptr %11) #8
  br label %82

82:                                               ; preds = %81
  ret i32 0
}