; Function Attrs: nounwind uwtable
define internal fastcc void @clear_module_state(ptr noundef captures(none) %0) unnamed_addr #0 {
  %2 = alloca %struct._PyXIData_lookup_context_t, align 8
  %3 = load ptr, ptr %0, align 8, !tbaa !85
  %.not = icmp eq ptr %3, null
  br i1 %.not, label %Py_DECREF.exit44, label %4

4:                                                ; preds = %1
  %5 = tail call ptr @PyInterpreterState_Get() #6
  call void @llvm.lifetime.start.p0(i64 24, ptr nonnull %2) #6
  %6 = call i32 @_PyXIData_GetLookupContext(ptr noundef %5, ptr noundef nonnull %2) #6
  %7 = icmp slt i32 %6, 0
  br i1 %7, label %10, label %8

8:                                                ; preds = %4
  %9 = call i32 @_PyXIData_UnregisterClass(ptr noundef nonnull %2, ptr noundef nonnull %3) #6
  br label %10

10:                                               ; preds = %8, %4
  call void @llvm.lifetime.end.p0(i64 24, ptr nonnull %2) #6
  %.pr = load ptr, ptr %0, align 8, !tbaa !85
  %.not32 = icmp eq ptr %.pr, null
  br i1 %.not32, label %Py_DECREF.exit44, label %11

11:                                               ; preds = %10
  store ptr null, ptr %0, align 8, !tbaa !85
  %12 = load i32, ptr %.pr, align 8, !tbaa !55
  %.not.i43 = icmp sgt i32 %12, -1
  br i1 %.not.i43, label %13, label %Py_DECREF.exit44

13:                                               ; preds = %11
  %14 = add nsw i32 %12, -1
  store i32 %14, ptr %.pr, align 8, !tbaa !55
  %15 = icmp eq i32 %14, 0
  br i1 %15, label %16, label %Py_DECREF.exit44

16:                                               ; preds = %13
  call void @_Py_Dealloc(ptr noundef nonnull %.pr) #6
  br label %Py_DECREF.exit44

Py_DECREF.exit44:                                 ; preds = %1, %16, %13, %11, %10
  %17 = getelementptr inbounds nuw i8, ptr %0, i64 8
  %18 = load ptr, ptr %17, align 8, !tbaa !16
  %.not33 = icmp eq ptr %18, null
  br i1 %.not33, label %Py_DECREF.exit42, label %19

19:                                               ; preds = %Py_DECREF.exit44
  store ptr null, ptr %17, align 8, !tbaa !16
  %20 = load i32, ptr %18, align 8, !tbaa !55
  %.not.i41 = icmp sgt i32 %20, -1
  br i1 %.not.i41, label %21, label %Py_DECREF.exit42

21:                                               ; preds = %19
  %22 = add nsw i32 %20, -1
  store i32 %22, ptr %18, align 8, !tbaa !55
  %23 = icmp eq i32 %22, 0
  br i1 %23, label %24, label %Py_DECREF.exit42

24:                                               ; preds = %21
  call void @_Py_Dealloc(ptr noundef nonnull %18) #6
  br label %Py_DECREF.exit42

Py_DECREF.exit42:                                 ; preds = %24, %21, %19, %Py_DECREF.exit44
  %25 = getelementptr inbounds nuw i8, ptr %0, i64 16
  %26 = load ptr, ptr %25, align 8, !tbaa !16
  %.not34 = icmp eq ptr %26, null
  br i1 %.not34, label %Py_DECREF.exit40, label %27

27:                                               ; preds = %Py_DECREF.exit42
  store ptr null, ptr %25, align 8, !tbaa !16
  %28 = load i32, ptr %26, align 8, !tbaa !55
  %.not.i39 = icmp sgt i32 %28, -1
  br i1 %.not.i39, label %29, label %Py_DECREF.exit40

29:                                               ; preds = %27
  %30 = add nsw i32 %28, -1
  store i32 %30, ptr %26, align 8, !tbaa !55
  %31 = icmp eq i32 %30, 0
  br i1 %31, label %32, label %Py_DECREF.exit40

32:                                               ; preds = %29
  call void @_Py_Dealloc(ptr noundef nonnull %26) #6
  br label %Py_DECREF.exit40

Py_DECREF.exit40:                                 ; preds = %32, %29, %27, %Py_DECREF.exit42
  %33 = getelementptr inbounds nuw i8, ptr %0, i64 24
  %34 = load ptr, ptr %33, align 8, !tbaa !16
  %.not35 = icmp eq ptr %34, null
  br i1 %.not35, label %Py_DECREF.exit38, label %35

35:                                               ; preds = %Py_DECREF.exit40
  store ptr null, ptr %33, align 8, !tbaa !16
  %36 = load i32, ptr %34, align 8, !tbaa !55
  %.not.i37 = icmp sgt i32 %36, -1
  br i1 %.not.i37, label %37, label %Py_DECREF.exit38

37:                                               ; preds = %35
  %38 = add nsw i32 %36, -1
  store i32 %38, ptr %34, align 8, !tbaa !55
  %39 = icmp eq i32 %38, 0
  br i1 %39, label %40, label %Py_DECREF.exit38

40:                                               ; preds = %37
  call void @_Py_Dealloc(ptr noundef nonnull %34) #6
  br label %Py_DECREF.exit38

Py_DECREF.exit38:                                 ; preds = %40, %37, %35, %Py_DECREF.exit40
  %41 = getelementptr inbounds nuw i8, ptr %0, i64 32
  %42 = load ptr, ptr %41, align 8, !tbaa !16
  %.not36 = icmp eq ptr %42, null
  br i1 %.not36, label %Py_DECREF.exit, label %43

43:                                               ; preds = %Py_DECREF.exit38
  store ptr null, ptr %41, align 8, !tbaa !16
  %44 = load i32, ptr %42, align 8, !tbaa !55
  %.not.i = icmp sgt i32 %44, -1
  br i1 %.not.i, label %45, label %Py_DECREF.exit

45:                                               ; preds = %43
  %46 = add nsw i32 %44, -1
  store i32 %46, ptr %42, align 8, !tbaa !55
  %47 = icmp eq i32 %46, 0
  br i1 %47, label %48, label %Py_DECREF.exit

48:                                               ; preds = %45
  call void @_Py_Dealloc(ptr noundef nonnull %42) #6
  br label %Py_DECREF.exit

Py_DECREF.exit:                                   ; preds = %48, %45, %43, %Py_DECREF.exit38
  ret void
}